target datalayout = "e-m:e-p270:32:32-p271:32:32-p272:64:64-i64:64-i128:128-f80:128-n8:16:32:64-S128"
target triple = "x86_64-pc-linux-gnu"

%struct.lstopo_ascii_output = type { ptr, ptr, i32, i32, i32 }
%struct.cell = type { i32, ptr, ptr }

; Function Attrs: nounwind uwtable
define internal void @put(ptr noundef %0, i32 noundef %1, i32 noundef %2, i32 noundef %3, ptr noundef %4, ptr noundef %5) #0 {
  %7 = alloca ptr, align 8
  %8 = alloca i32, align 4
  %9 = alloca i32, align 4
  %10 = alloca i32, align 4
  %11 = alloca ptr, align 8
  %12 = alloca ptr, align 8
  store ptr %0, ptr %7, align 8, !tbaa !71
  store i32 %1, ptr %8, align 4, !tbaa !13
  store i32 %2, ptr %9, align 4, !tbaa !13
  store i32 %3, ptr %10, align 4, !tbaa !13
  store ptr %4, ptr %11, align 8, !tbaa !11
  store ptr %5, ptr %12, align 8, !tbaa !11
  %13 = load i32, ptr %8, align 4, !tbaa !13
  %14 = load ptr, ptr %7, align 8, !tbaa !71
  %15 = getelementptr inbounds nuw %struct.lstopo_ascii_output, ptr %14, i32 0, i32 3
  %16 = load i32, ptr %15, align 4, !tbaa !48
  %17 = icmp sge i32 %13, %16
  br i1 %17, label %24, label %18

18:                                               ; preds = %6
  %19 = load i32, ptr %9, align 4, !tbaa !13
  %20 = load ptr, ptr %7, align 8, !tbaa !71
  %21 = getelementptr inbounds nuw %struct.lstopo_ascii_output, ptr %20, i32 0, i32 4
  %22 = load i32, ptr %21, align 8, !tbaa !50
  %23 = icmp sge i32 %19, %22
  br i1 %23, label %24, label %25

24:                                               ; preds = %18, %6
  br label %69

25:                                               ; preds = %18
  %26 = load i32, ptr %10, align 4, !tbaa !13
  %27 = load ptr, ptr %7, align 8, !tbaa !71
  %28 = getelementptr inbounds nuw %struct.lstopo_ascii_output, ptr %27, i32 0, i32 1
  %29 = load ptr, ptr %28, align 8, !tbaa !51
  %30 = load i32, ptr %9, align 4, !tbaa !13
  %31 = sext i32 %30 to i64
  %32 = getelementptr inbounds ptr, ptr %29, i64 %31
  %33 = load ptr, ptr %32, align 8, !tbaa !52
  %34 = load i32, ptr %8, align 4, !tbaa !13
  %35 = sext i32 %34 to i64
  %36 = getelementptr inbounds %struct.cell, ptr %33, i64 %35
  %37 = getelementptr inbounds nuw %struct.cell, ptr %36, i32 0, i32 0
  store i32 %26, ptr %37, align 8, !tbaa !54
  %38 = load ptr, ptr %11, align 8, !tbaa !11
  %39 = icmp ne ptr %38, null
  br i1 %39, label %40, label %53

40:                                               ; preds = %25
  %41 = load ptr, ptr %11, align 8, !tbaa !11
  %42 = load ptr, ptr %7, align 8, !tbaa !71
  %43 = getelementptr inbounds nuw %struct.lstopo_ascii_output, ptr %42, i32 0, i32 1
  %44 = load ptr, ptr %43, align 8, !tbaa !51
  %45 = load i32, ptr %9, align 4, !tbaa !13
  %46 = sext i32 %45 to i64
  %47 = getelementptr inbounds ptr, ptr %44, i64 %46
  %48 = load ptr, ptr %47, align 8, !tbaa !52
  %49 = load i32, ptr %8, align 4, !tbaa !13
  %50 = sext i32 %49 to i64
  %51 = getelementptr inbounds %struct.cell, ptr %48, i64 %50
  %52 = getelementptr inbounds nuw %struct.cell, ptr %51, i32 0, i32 1
  store ptr %41, ptr %52, align 8, !tbaa !56
  br label %53

53:                                               ; preds = %40, %25
  %54 = load ptr, ptr %12, align 8, !tbaa !11
  %55 = icmp ne ptr %54, null
  br i1 %55, label %56, label %69

56:                                               ; preds = %53
  %57 = load ptr, ptr %12, align 8, !tbaa !11
  %58 = load ptr, ptr %7, align 8, !tbaa !71
  %59 = getelementptr inbounds nuw %struct.lstopo_ascii_output, ptr %58, i32 0, i32 1
  %60 = load ptr, ptr %59, align 8, !tbaa !51
  %61 = load i32, ptr %9, align 4, !tbaa !13
  %62 = sext i32 %61 to i64
  %63 = getelementptr inbounds ptr, ptr %60, i64 %62
  %64 = load ptr, ptr %63, align 8, !tbaa !52
  %65 = load i32, ptr %8, align 4, !tbaa !13
  %66 = sext i32 %65 to i64
  %67 = getelementptr inbounds %struct.cell, ptr %64, i64 %66
  %68 = getelementptr inbounds nuw %struct.cell, ptr %67, i32 0, i32 2
  store ptr %57, ptr %68, align 8, !tbaa !57
  br label %69

69:                                               ; preds = %24, %56, %53
  ret void
}

; Function Attrs: nounwind uwtable
define internal i32 @from_directions(ptr noundef %0, i32 noundef %1) #0 {
  %3 = alloca i32, align 4
  %4 = alloca ptr, align 8
  %5 = alloca i32, align 4
  store ptr %0, ptr %4, align 8, !tbaa !71
  store i32 %1, ptr %5, align 4, !tbaa !13
  %6 = load ptr, ptr %4, align 8, !tbaa !71
  %7 = getelementptr inbounds nuw %struct.lstopo_ascii_output, ptr %6, i32 0, i32 2
  %8 = load i32, ptr %7, align 8, !tbaa !61
  %9 = icmp ne i32 %8, 0
  br i1 %9, label %10, label %28

10:                                               ; preds = %2
  %11 = load i32, ptr %5, align 4, !tbaa !13
  switch i32 %11, label %27 [
    i32 10, label %12
    i32 6, label %13
    i32 9, label %14
    i32 5, label %15
    i32 12, label %16
    i32 3, label %17
    i32 2, label %18
    i32 1, label %19
    i32 8, label %20
    i32 4, label %21
    i32 11, label %22
    i32 7, label %23
    i32 14, label %24
    i32 13, label %25
    i32 15, label %26
  ]

12:                                               ; preds = %10
  store i32 9484, ptr %3, align 4
  br label %46

13:                                               ; preds = %10
  store i32 9488, ptr %3, align 4
  br label %46

14:                                               ; preds = %10
  store i32 9492, ptr %3, align 4
  br label %46

15:                                               ; preds = %10
  store i32 9496, ptr %3, align 4
  br label %46

16:                                               ; preds = %10
  store i32 9472, ptr %3, align 4
  br label %46

17:                                               ; preds = %10
  store i32 9474, ptr %3, align 4
  br label %46

18:                                               ; preds = %10
  store i32 9591, ptr %3, align 4
  br label %46

19:                                               ; preds = %10
  store i32 9589, ptr %3, align 4
  br label %46

20:                                               ; preds = %10
  store i32 9590, ptr %3, align 4
  br label %46

21:                                               ; preds = %10
  store i32 9588, ptr %3, align 4
  br label %46

22:                                               ; preds = %10
  store i32 9500, ptr %3, align 4
  br label %46

23:                                               ; preds = %10
  store i32 9508, ptr %3, align 4
  br label %46

24:                                               ; preds = %10
  store i32 9516, ptr %3, align 4
  br label %46

25:                                               ; preds = %10
  store i32 9524, ptr %3, align 4
  br label %46

26:                                               ; preds = %10
  store i32 9532, ptr %3, align 4
  br label %46

27:                                               ; preds = %10
  store i32 32, ptr %3, align 4
  br label %46

28:                                               ; preds = %2
  %29 = load i32, ptr %5, align 4, !tbaa !13
  switch i32 %29, label %45 [
    i32 10, label %30
    i32 6, label %31
    i32 9, label %32
    i32 5, label %33
    i32 12, label %34
    i32 3, label %35
    i32 2, label %36
    i32 1, label %37
    i32 8, label %38
    i32 4, label %39
    i32 11, label %40
    i32 7, label %41
    i32 14, label %42
    i32 13, label %43
    i32 15, label %44
  ]

30:                                               ; preds = %28
  store i32 47, ptr %3, align 4
  br label %46

31:                                               ; preds = %28
  store i32 92, ptr %3, align 4
  br label %46

32:                                               ; preds = %28
  store i32 92, ptr %3, align 4
  br label %46

33:                                               ; preds = %28
  store i32 47, ptr %3, align 4
  br label %46

34:                                               ; preds = %28
  store i32 45, ptr %3, align 4
  br label %46

35:                                               ; preds = %28
  store i32 124, ptr %3, align 4
  br label %46

36:                                               ; preds = %28
  store i32 124, ptr %3, align 4
  br label %46

37:                                               ; preds = %28
  store i32 124, ptr %3, align 4
  br label %46

38:                                               ; preds = %28
  store i32 45, ptr %3, align 4
  br label %46

39:                                               ; preds = %28
  store i32 45, ptr %3, align 4
  br label %46

40:                                               ; preds = %28
  store i32 43, ptr %3, align 4
  br label %46

41:                                               ; preds = %28
  store i32 43, ptr %3, align 4
  br label %46

42:                                               ; preds = %28
  store i32 43, ptr %3, align 4
  br label %46

43:                                               ; preds = %28
  store i32 43, ptr %3, align 4
  br label %46

44:                                               ; preds = %28
  store i32 43, ptr %3, align 4
  br label %46

45:                                               ; preds = %28
  store i32 32, ptr %3, align 4
  br label %46

46:                                               ; preds = %45, %44, %43, %42, %41, %40, %39, %38, %37, %36, %35, %34, %33, %32, %31, %30, %27, %26, %25, %24, %23, %22, %21, %20, %19, %18, %17, %16, %15, %14, %13, %12
  %47 = load i32, ptr %3, align 4
  ret i32 %47
}

; Function Attrs: nounwind uwtable
define internal i32 @to_directions(ptr noundef %0, i32 noundef %1) #0 {
  %3 = alloca i32, align 4
  %4 = alloca ptr, align 8
  %5 = alloca i32, align 4
  store ptr %0, ptr %4, align 8, !tbaa !71
  store i32 %1, ptr %5, align 4, !tbaa !13
  %6 = load ptr, ptr %4, align 8, !tbaa !71
  %7 = getelementptr inbounds nuw %struct.lstopo_ascii_output, ptr %6, i32 0, i32 2
  %8 = load i32, ptr %7, align 8, !tbaa !61
  %9 = icmp ne i32 %8, 0
  br i1 %9, label %10, label %28

10:                                               ; preds = %2
  %11 = load i32, ptr %5, align 4, !tbaa !13
  switch i32 %11, label %27 [
    i32 9484, label %12
    i32 9488, label %13
    i32 9492, label %14
    i32 9496, label %15
    i32 9472, label %16
    i32 9474, label %17
    i32 9591, label %18
    i32 9589, label %19
    i32 9590, label %20
    i32 9588, label %21
    i32 9500, label %22
    i32 9508, label %23
    i32 9516, label %24
    i32 9524, label %25
    i32 9532, label %26
  ]

12:                                               ; preds = %10
  store i32 10, ptr %3, align 4
  br label %34

13:                                               ; preds = %10
  store i32 6, ptr %3, align 4
  br label %34

14:                                               ; preds = %10
  store i32 9, ptr %3, align 4
  br label %34

15:                                               ; preds = %10
  store i32 5, ptr %3, align 4
  br label %34

16:                                               ; preds = %10
  store i32 12, ptr %3, align 4
  br label %34

17:                                               ; preds = %10
  store i32 3, ptr %3, align 4
  br label %34

18:                                               ; preds = %10
  store i32 2, ptr %3, align 4
  br label %34

19:                                               ; preds = %10
  store i32 1, ptr %3, align 4
  br label %34

20:                                               ; preds = %10
  store i32 8, ptr %3, align 4
  br label %34

21:                                               ; preds = %10
  store i32 4, ptr %3, align 4
  br label %34

22:                                               ; preds = %10
  store i32 11, ptr %3, align 4
  br label %34

23:                                               ; preds = %10
  store i32 7, ptr %3, align 4
  br label %34

24:                                               ; preds = %10
  store i32 14, ptr %3, align 4
  br label %34

25:                                               ; preds = %10
  store i32 13, ptr %3, align 4
  br label %34

26:                                               ; preds = %10
  store i32 15, ptr %3, align 4
  br label %34

27:                                               ; preds = %10
  store i32 0, ptr %3, align 4
  br label %34

28:                                               ; preds = %2
  %29 = load i32, ptr %5, align 4, !tbaa !13
  switch i32 %29, label %33 [
    i32 45, label %30
    i32 124, label %31
    i32 47, label %32
    i32 92, label %32
    i32 43, label %32
  ]

30:                                               ; preds = %28
  store i32 12, ptr %3, align 4
  br label %34

31:                                               ; preds = %28
  store i32 3, ptr %3, align 4
  br label %34

32:                                               ; preds = %28, %28, %28
  store i32 15, ptr %3, align 4
  br label %34

33:                                               ; preds = %28
  store i32 0, ptr %3, align 4
  br label %34

34:                                               ; preds = %33, %32, %31, %30, %27, %26, %25, %24, %23, %22, %21, %20, %19, %18, %17, %16, %15, %14, %13, %12
  %35 = load i32, ptr %3, align 4
  ret i32 %35
}

; Function Attrs: nounwind uwtable
define internal void @merge(ptr noundef %0, i32 noundef %1, i32 noundef %2, i32 noundef %3, i32 noundef %4, ptr noundef %5) #0 {
  %7 = alloca ptr, align 8
  %8 = alloca i32, align 4
  %9 = alloca i32, align 4
  %10 = alloca i32, align 4
  %11 = alloca i32, align 4
  %12 = alloca ptr, align 8
  %13 = alloca i32, align 4
  %14 = alloca i32, align 4
  %15 = alloca i32, align 4
  store ptr %0, ptr %7, align 8, !tbaa !71
  store i32 %1, ptr %8, align 4, !tbaa !13
  store i32 %2, ptr %9, align 4, !tbaa !13
  store i32 %3, ptr %10, align 4, !tbaa !13
  store i32 %4, ptr %11, align 4, !tbaa !13
  store ptr %5, ptr %12, align 8, !tbaa !11
  call void @llvm.lifetime.start.p0(i64 4, ptr %13) #8
  call void @llvm.lifetime.start.p0(i64 4, ptr %14) #8
  %16 = load i32, ptr %8, align 4, !tbaa !13
  %17 = load ptr, ptr %7, align 8, !tbaa !71
  %18 = getelementptr inbounds nuw %struct.lstopo_ascii_output, ptr %17, i32 0, i32 3
  %19 = load i32, ptr %18, align 4, !tbaa !48
  %20 = icmp sge i32 %16, %19
  br i1 %20, label %27, label %21

21:                                               ; preds = %6
  %22 = load i32, ptr %9, align 4, !tbaa !13
  %23 = load ptr, ptr %7, align 8, !tbaa !71
  %24 = getelementptr inbounds nuw %struct.lstopo_ascii_output, ptr %23, i32 0, i32 4
  %25 = load i32, ptr %24, align 8, !tbaa !50
  %26 = icmp sge i32 %22, %25
  br i1 %26, label %27, label %28

27:                                               ; preds = %21, %6
  store i32 1, ptr %15, align 4
  br label %56

28:                                               ; preds = %21
  %29 = load ptr, ptr %7, align 8, !tbaa !71
  %30 = getelementptr inbounds nuw %struct.lstopo_ascii_output, ptr %29, i32 0, i32 1
  %31 = load ptr, ptr %30, align 8, !tbaa !51
  %32 = load i32, ptr %9, align 4, !tbaa !13
  %33 = sext i32 %32 to i64
  %34 = getelementptr inbounds ptr, ptr %31, i64 %33
  %35 = load ptr, ptr %34, align 8, !tbaa !52
  %36 = load i32, ptr %8, align 4, !tbaa !13
  %37 = sext i32 %36 to i64
  %38 = getelementptr inbounds %struct.cell, ptr %35, i64 %37
  %39 = getelementptr inbounds nuw %struct.cell, ptr %38, i32 0, i32 0
  %40 = load i32, ptr %39, align 8, !tbaa !54
  store i32 %40, ptr %13, align 4, !tbaa !13
  %41 = load ptr, ptr %7, align 8, !tbaa !71
  %42 = load i32, ptr %13, align 4, !tbaa !13
  %43 = call i32 @to_directions(ptr noundef %41, i32 noundef %42)
  %44 = load i32, ptr %11, align 4, !tbaa !13
  %45 = xor i32 %44, -1
  %46 = and i32 %43, %45
  %47 = load i32, ptr %10, align 4, !tbaa !13
  %48 = or i32 %46, %47
  store i32 %48, ptr %14, align 4, !tbaa !13
  %49 = load ptr, ptr %7, align 8, !tbaa !71
  %50 = load i32, ptr %8, align 4, !tbaa !13
  %51 = load i32, ptr %9, align 4, !tbaa !13
  %52 = load ptr, ptr %7, align 8, !tbaa !71
  %53 = load i32, ptr %14, align 4, !tbaa !13
  %54 = call i32 @from_directions(ptr noundef %52, i32 noundef %53)
  %55 = load ptr, ptr %12, align 8, !tbaa !11
  call void @put(ptr noundef %49, i32 noundef %50, i32 noundef %51, i32 noundef %54, ptr noundef null, ptr noundef %55)
  store i32 0, ptr %15, align 4
  br label %56

56:                                               ; preds = %28, %27
  call void @llvm.lifetime.end.p0(i64 4, ptr %14) #8
  call void @llvm.lifetime.end.p0(i64 4, ptr %13) #8
  %57 = load i32, ptr %15, align 4
  switch i32 %57, label %59 [
    i32 0, label %58
    i32 1, label %58
  ]

58:                                               ; preds = %56, %56
  ret void

59:                                               ; preds = %56
  unreachable
}