; Function Attrs: mustprogress nofree norecurse nosync nounwind willreturn memory(readwrite, inaccessiblemem: none) uwtable
define internal fastcc void @merge(ptr noundef readonly captures(none) %0, i32 noundef %1, i32 noundef %2, i32 noundef range(i32 1, 13) %3, i32 noundef range(i32 0, 9) %4, ptr noundef %5) unnamed_addr #13 {
  %7 = getelementptr inbounds nuw i8, ptr %0, i64 20
  %8 = load i32, ptr %7, align 4, !tbaa !45
  %.not = icmp slt i32 %1, %8
  br i1 %.not, label %9, label %put.exit

9:                                                ; preds = %6
  %10 = getelementptr inbounds nuw i8, ptr %0, i64 24
  %11 = load i32, ptr %10, align 8, !tbaa !47
  %.not17 = icmp slt i32 %2, %11
  br i1 %.not17, label %12, label %put.exit

12:                                               ; preds = %9
  %13 = getelementptr inbounds nuw i8, ptr %0, i64 8
  %14 = load ptr, ptr %13, align 8, !tbaa !48
  %15 = sext i32 %2 to i64
  %16 = getelementptr inbounds ptr, ptr %14, i64 %15
  %17 = load ptr, ptr %16, align 8, !tbaa !49
  %18 = sext i32 %1 to i64
  %19 = getelementptr inbounds %struct.cell, ptr %17, i64 %18
  %20 = load i32, ptr %19, align 8, !tbaa !51
  %21 = getelementptr i8, ptr %0, i64 16
  %.val = load i32, ptr %21, align 8, !tbaa !59
  %.not.i = icmp eq i32 %.val, 0
  br i1 %.not.i, label %38, label %22

22:                                               ; preds = %12
  switch i32 %20, label %37 [
    i32 9484, label %from_directions.exit
    i32 9488, label %23
    i32 9492, label %24
    i32 9496, label %25
    i32 9472, label %26
    i32 9474, label %27
    i32 9591, label %28
    i32 9589, label %29
    i32 9590, label %30
    i32 9588, label %31
    i32 9500, label %32
    i32 9508, label %33
    i32 9516, label %34
    i32 9524, label %35
    i32 9532, label %36
  ]

23:                                               ; preds = %22
  br label %from_directions.exit

24:                                               ; preds = %22
  br label %from_directions.exit

25:                                               ; preds = %22
  br label %from_directions.exit

26:                                               ; preds = %22
  br label %from_directions.exit

27:                                               ; preds = %22
  br label %from_directions.exit

28:                                               ; preds = %22
  br label %from_directions.exit

29:                                               ; preds = %22
  br label %from_directions.exit

30:                                               ; preds = %22
  br label %from_directions.exit

31:                                               ; preds = %22
  br label %from_directions.exit

32:                                               ; preds = %22
  br label %from_directions.exit

33:                                               ; preds = %22
  br label %from_directions.exit

34:                                               ; preds = %22
  br label %from_directions.exit

35:                                               ; preds = %22
  br label %from_directions.exit

36:                                               ; preds = %22
  br label %from_directions.exit

37:                                               ; preds = %22
  br label %from_directions.exit

38:                                               ; preds = %12
  switch i32 %20, label %41 [
    i32 45, label %from_directions.exit
    i32 124, label %39
    i32 47, label %40
    i32 92, label %40
    i32 43, label %40
  ]

39:                                               ; preds = %38
  br label %from_directions.exit

40:                                               ; preds = %38, %38, %38
  br label %from_directions.exit

41:                                               ; preds = %38
  br label %from_directions.exit

from_directions.exit:                             ; preds = %38, %39, %40, %41, %37, %36, %35, %34, %33, %32, %31, %30, %29, %28, %27, %26, %25, %24, %23, %22
  %.0.i.sink = phi i32 [ 10, %22 ], [ 6, %23 ], [ 9, %24 ], [ 5, %25 ], [ 12, %26 ], [ 3, %27 ], [ 2, %28 ], [ 1, %29 ], [ 8, %30 ], [ 4, %31 ], [ 11, %32 ], [ 7, %33 ], [ 14, %34 ], [ 13, %35 ], [ 15, %36 ], [ 0, %37 ], [ 0, %41 ], [ 15, %40 ], [ 3, %39 ], [ 12, %38 ]
  %switch.table.merge.3.sink = phi ptr [ @switch.table.merge, %22 ], [ @switch.table.merge, %23 ], [ @switch.table.merge, %24 ], [ @switch.table.merge, %25 ], [ @switch.table.merge, %26 ], [ @switch.table.merge, %27 ], [ @switch.table.merge, %28 ], [ @switch.table.merge, %29 ], [ @switch.table.merge, %30 ], [ @switch.table.merge, %31 ], [ @switch.table.merge, %32 ], [ @switch.table.merge, %33 ], [ @switch.table.merge, %34 ], [ @switch.table.merge, %35 ], [ @switch.table.merge, %36 ], [ @switch.table.merge, %37 ], [ @switch.table.merge.3, %41 ], [ @switch.table.merge.3, %40 ], [ @switch.table.merge.3, %39 ], [ @switch.table.merge.3, %38 ]
  %42 = xor i32 %4, -1
  %43 = and i32 %.0.i.sink, %42
  %44 = or i32 %43, %3
  %switch.tableidx24 = add nsw i32 %44, -1
  %45 = sext i32 %switch.tableidx24 to i64
  %switch.gep25 = getelementptr inbounds [15 x i32], ptr %switch.table.merge.3.sink, i64 0, i64 %45
  %switch.load26 = load i32, ptr %switch.gep25, align 4
  store i32 %switch.load26, ptr %19, align 8, !tbaa !51
  %.not22.i = icmp eq ptr %5, null
  br i1 %.not22.i, label %put.exit, label %46

46:                                               ; preds = %from_directions.exit
  %47 = getelementptr inbounds %struct.cell, ptr %17, i64 %18, i32 2
  store ptr %5, ptr %47, align 8, !tbaa !55
  br label %put.exit

put.exit:                                         ; preds = %46, %from_directions.exit, %6, %9
  ret void
}